Certificate:
    Data:
        Version: 3 (0x2)
        Serial Number: 13728972488862282771 (0xbe871bbd49bf3413)
    Signature Algorithm: sha256WithRSAEncryption
        Issuer: C=CN, ST=JIANGSU, O=KOOLPOS, OU=EM, CN=KOOLPOSROOT/emailAddress=imbak.gao@koolpos.com
        Validity
            Not Before: May 13 02:49:07 2015 GMT
            Not After : May 12 02:49:07 2016 GMT
        Subject: C=CN, ST=JIANGSU, L=WUXI, O=KOOLPOS, OU=EM, CN=clienttest/emailAddress=imbak.gao@koolpos.com
        Subject Public Key Info:
            Public Key Algorithm: rsaEncryption
                Public-Key: (2048 bit)
                Modulus:
                    00:c5:45:4d:b5:ad:65:68:ca:31:2e:c7:18:bd:2c:
                    11:13:ef:c1:99:5c:03:dd:df:0a:ef:63:b3:ae:03:
                    5c:d6:7b:9d:17:1b:6d:8e:8a:79:fd:7a:71:d6:87:
                    0b:3a:68:e3:11:3f:d2:ac:3d:1a:0e:75:ec:a4:e4:
                    d2:14:ed:4d:3d:97:6d:45:d6:5f:94:94:f5:d3:59:
                    ed:4b:9a:09:11:7d:a2:bb:5f:f9:f2:a3:f3:a9:ff:
                    bf:e2:d5:80:f4:f9:0b:0f:ca:df:b6:fd:7c:8b:a4:
                    78:eb:fc:8b:09:7f:bb:aa:2d:4f:11:46:e8:10:a2:
                    02:d0:ec:8a:9c:59:bb:11:89:10:ae:cc:52:e2:c8:
                    74:9e:b9:b7:3b:08:5c:3f:ed:00:ee:78:b8:12:18:
                    93:d0:03:50:fd:5a:ff:ed:c6:06:f4:e4:7e:59:90:
                    9f:d9:9e:6a:63:ce:cf:74:ed:13:73:38:80:5a:69:
                    1d:e0:3f:7f:7b:63:e9:41:6b:c7:37:8e:8b:64:4b:
                    cf:f1:c3:b5:36:3d:0a:fa:18:93:af:ef:0d:60:98:
                    86:e2:8c:3a:2d:de:4b:7d:b5:0c:a7:0e:c2:fd:7f:
                    42:6a:3c:83:f3:38:e6:f0:94:85:a0:6a:f9:ad:69:
                    c1:51:96:df:01:fb:a7:c2:e7:e4:6c:a4:2e:c2:e6:
                    29:37
                Exponent: 65537 (0x10001)
        X509v3 extensions:
            X509v3 Basic Constraints: 
                CA:FALSE
            Netscape Comment: 
                OpenSSL Generated Certificate
            X509v3 Subject Key Identifier: 
                F0:00:6E:A7:DC:B1:C8:11:48:CD:C8:19:73:C5:38:23:F5:E4:E6:79
            X509v3 Authority Key Identifier: 
                keyid:DF:42:0A:9A:65:7B:7F:47:B6:C7:2B:BF:59:A0:0F:25:C4:A2:43:07

    Signature Algorithm: sha256WithRSAEncryption
         66:b8:e4:d9:20:f3:ee:7f:e1:2e:70:41:eb:c5:5f:0b:9e:d6:
         69:43:b1:f0:f3:fb:13:84:53:06:c2:3d:8b:9a:e5:8a:a0:be:
         42:b6:11:62:f8:b6:f1:c1:88:49:aa:2a:96:03:1a:66:e0:c9:
         16:5b:2f:a4:d1:81:b9:2d:6f:49:82:09:30:88:33:01:ab:45:
         47:4b:2b:d8:f8:b0:df:05:a6:4c:b2:ab:c7:56:89:ad:d1:c6:
         25:30:e5:5a:9e:f3:de:ad:ea:d9:75:2c:f4:95:9d:c0:eb:2b:
         18:17:ea:7a:43:c6:ff:5a:6d:93:d2:65:e2:c5:26:01:62:b3:
         54:3e:d1:01:44:a2:f4:73:6e:81:91:55:f6:fe:6d:a3:ec:bb:
         83:04:ba:02:00:b1:7e:af:05:58:3a:dc:a7:30:bb:db:e8:8d:
         d1:d0:d2:df:86:17:d0:41:e6:71:5a:6f:c7:7f:be:2c:48:86:
         b7:1f:32:b5:8d:21:05:3c:fc:7a:e1:ec:e9:55:62:02:00:ef:
         be:3e:9d:68:60:71:48:9a:65:3c:55:cb:12:dd:31:2d:89:19:
         89:e3:71:f7:0a:54:8a:72:15:26:6c:e4:12:4a:8d:1c:01:66:
         8b:85:d4:42:18:c6:17:52:81:9d:10:4b:8d:ca:fd:b8:53:ba:
         57:f0:63:78
-----BEGIN CERTIFICATE-----
MIIEATCCAumgAwIBAgIJAL6HG71JvzQTMA0GCSqGSIb3DQEBCwUAMHoxCzAJBgNV
BAYTAkNOMRAwDgYDVQQIDAdKSUFOR1NVMRAwDgYDVQQKDAdLT09MUE9TMQswCQYD
VQQLDAJFTTEUMBIGA1UEAwwLS09PTFBPU1JPT1QxJDAiBgkqhkiG9w0BCQEWFWlt
YmFrLmdhb0Brb29scG9zLmNvbTAeFw0xNTA1MTMwMjQ5MDdaFw0xNjA1MTIwMjQ5
MDdaMIGIMQswCQYDVQQGEwJDTjEQMA4GA1UECAwHSklBTkdTVTENMAsGA1UEBwwE
V1VYSTEQMA4GA1UECgwHS09PTFBPUzELMAkGA1UECwwCRU0xEzARBgNVBAMMCmNs
aWVudHRlc3QxJDAiBgkqhkiG9w0BCQEWFWltYmFrLmdhb0Brb29scG9zLmNvbTCC
ASIwDQYJKoZIhvcNAQEBBQADggEPADCCAQoCggEBAMVFTbWtZWjKMS7HGL0sERPv
wZlcA93fCu9js64DXNZ7nRcbbY6Kef16cdaHCzpo4xE/0qw9Gg517KTk0hTtTT2X
bUXWX5SU9dNZ7UuaCRF9ortf+fKj86n/v+LVgPT5Cw/K37b9fIukeOv8iwl/u6ot
TxFG6BCiAtDsipxZuxGJEK7MUuLIdJ65tzsIXD/tAO54uBIYk9ADUP1a/+3GBvTk
flmQn9meamPOz3TtE3M4gFppHeA/f3tj6UFrxzeOi2RLz/HDtTY9CvoYk6/vDWCY
huKMOi3eS321DKcOwv1/Qmo8g/M45vCUhaBq+a1pwVGW3wH7p8Ln5GykLsLmKTcC
AwEAAaN7MHkwCQYDVR0TBAIwADAsBglghkgBhvhCAQ0EHxYdT3BlblNTTCBHZW5l
cmF0ZWQgQ2VydGlmaWNhdGUwHQYDVR0OBBYEFPAAbqfcscgRSM3IGXPFOCP15OZ5
MB8GA1UdIwQYMBaAFN9CCpple39Htscrv1mgDyXEokMHMA0GCSqGSIb3DQEBCwUA
A4IBAQBmuOTZIPPuf+EucEHrxV8LntZpQ7Hw8/sThFMGwj2LmuWKoL5CthFi+Lbx
wYhJqiqWAxpm4MkWWy+k0YG5LW9JggkwiDMBq0VHSyvY+LDfBaZMsqvHVomt0cYl
MOVanvPererZdSz0lZ3A6ysYF+p6Q8b/Wm2T0mXixSYBYrNUPtEBRKL0c26BkVX2
/m2j7LuDBLoCALF+rwVYOtynMLvb6I3R0NLfhhfQQeZxWm/Hf74sSIa3HzK1jSEF
PPx64ezpVWICAO++Pp1oYHFImmU8VcsS3TEtiRmJ43H3ClSKchUmbOQSSo0cAWaL
hdRCGMYXUoGdEEuNyv24U7pX8GN4
-----END CERTIFICATE-----
