Certificate:
    Data:
        Version: 3 (0x2)
        Serial Number: 13728972488862282769 (0xbe871bbd49bf3411)
    Signature Algorithm: sha256WithRSAEncryption
        Issuer: C=CN, ST=JIANGSU, O=KOOLPOS, OU=EM, CN=KOOLPOSROOT/emailAddress=imbak.gao@koolpos.com
        Validity
            Not Before: May 13 02:49:06 2015 GMT
            Not After : May 12 02:49:06 2018 GMT
        Subject: C=CN, ST=JIANGSU, O=KOOLPOS, OU=EM, CN=KOOLPOSROOT/emailAddress=imbak.gao@koolpos.com
        Subject Public Key Info:
            Public Key Algorithm: rsaEncryption
                Public-Key: (2048 bit)
                Modulus:
                    00:cd:6c:ba:a4:11:b9:da:d4:0c:4c:c9:19:35:db:
                    c1:66:1b:94:ed:f5:81:45:94:27:a6:26:e6:d8:52:
                    f7:6d:5c:c4:6d:36:cc:ec:e6:ae:c3:ff:dc:a3:90:
                    63:f2:59:70:02:f0:26:17:2a:30:58:7d:30:a8:7f:
                    de:f8:77:cb:47:4a:48:64:54:ff:2a:5a:a5:f7:ce:
                    98:e5:fb:6f:a0:98:44:a8:f0:8f:f2:92:fd:7d:24:
                    69:7f:0a:0b:db:0c:99:dd:3c:1b:8f:25:c6:37:75:
                    3f:4e:42:c3:4b:61:01:0e:69:77:b0:98:0c:97:85:
                    b8:6b:9b:95:dc:d1:a6:ea:15:12:bb:d6:9e:7e:4e:
                    20:1b:54:65:3a:da:59:a2:5b:9c:ce:a6:eb:ce:7e:
                    66:d8:5c:c2:eb:4a:b6:3d:75:58:a4:1a:da:fd:de:
                    2c:ec:10:e8:7b:5d:76:23:09:e2:a6:0c:9d:c1:31:
                    47:33:de:08:a4:59:8d:ae:cd:e8:e5:b2:84:f2:c6:
                    9f:e0:cd:6e:05:88:26:2f:20:89:bc:59:ea:02:5b:
                    1f:11:6d:37:eb:00:79:71:a1:c3:4e:fe:8e:4e:14:
                    80:2e:1b:05:2e:07:1f:3c:ae:30:1e:4c:31:29:c6:
                    01:30:0f:dc:7b:fc:96:ab:97:b9:48:29:9a:66:31:
                    18:77
                Exponent: 65537 (0x10001)
        X509v3 extensions:
            X509v3 Subject Key Identifier: 
                DF:42:0A:9A:65:7B:7F:47:B6:C7:2B:BF:59:A0:0F:25:C4:A2:43:07
            X509v3 Authority Key Identifier: 
                keyid:DF:42:0A:9A:65:7B:7F:47:B6:C7:2B:BF:59:A0:0F:25:C4:A2:43:07

            X509v3 Basic Constraints: 
                CA:TRUE
    Signature Algorithm: sha256WithRSAEncryption
         10:95:66:0a:a0:cb:9d:0c:3e:46:79:d9:aa:93:ca:a1:51:11:
         d7:08:9c:0d:95:ba:dc:1a:0f:3e:02:98:02:e9:b7:61:a5:96:
         45:40:4a:2e:38:18:93:0b:4f:8c:23:8a:68:33:b6:66:6b:19:
         a8:b9:e0:c8:e2:b1:54:86:34:bc:3e:d0:31:1a:14:20:21:14:
         b9:83:56:01:73:e3:13:f4:53:43:12:35:d2:e7:f7:2e:10:77:
         05:de:52:67:bc:49:fc:89:bb:9d:e7:4f:68:be:e1:f1:32:16:
         4a:73:3e:34:77:34:12:05:cb:24:a8:ce:05:71:65:e7:5a:3b:
         05:7c:45:46:76:9e:47:ef:9f:a0:80:64:d3:2e:5f:ce:d2:20:
         21:0f:92:0e:d0:8d:85:0f:78:38:53:9b:e3:8a:e4:5f:12:56:
         2d:50:ec:e4:c2:5b:7b:f4:c3:1d:42:91:3b:7d:dc:8c:24:ed:
         d7:ba:47:9c:e4:a5:98:5c:a6:d7:2f:e2:12:3a:2e:9e:fc:5a:
         23:b5:dd:48:9b:88:26:29:cc:4a:49:be:77:2c:49:0d:cd:96:
         41:ad:8f:64:c7:60:62:3e:44:f2:1e:40:c0:1b:a5:dd:81:3c:
         3b:c5:22:15:bb:05:92:6b:72:cf:f7:b7:eb:27:25:2b:c5:df:
         6b:bd:1a:dc
-----BEGIN CERTIFICATE-----
MIIDxzCCAq+gAwIBAgIJAL6HG71JvzQRMA0GCSqGSIb3DQEBCwUAMHoxCzAJBgNV
BAYTAkNOMRAwDgYDVQQIDAdKSUFOR1NVMRAwDgYDVQQKDAdLT09MUE9TMQswCQYD
VQQLDAJFTTEUMBIGA1UEAwwLS09PTFBPU1JPT1QxJDAiBgkqhkiG9w0BCQEWFWlt
YmFrLmdhb0Brb29scG9zLmNvbTAeFw0xNTA1MTMwMjQ5MDZaFw0xODA1MTIwMjQ5
MDZaMHoxCzAJBgNVBAYTAkNOMRAwDgYDVQQIDAdKSUFOR1NVMRAwDgYDVQQKDAdL
T09MUE9TMQswCQYDVQQLDAJFTTEUMBIGA1UEAwwLS09PTFBPU1JPT1QxJDAiBgkq
hkiG9w0BCQEWFWltYmFrLmdhb0Brb29scG9zLmNvbTCCASIwDQYJKoZIhvcNAQEB
BQADggEPADCCAQoCggEBAM1suqQRudrUDEzJGTXbwWYblO31gUWUJ6Ym5thS921c
xG02zOzmrsP/3KOQY/JZcALwJhcqMFh9MKh/3vh3y0dKSGRU/ypapffOmOX7b6CY
RKjwj/KS/X0kaX8KC9sMmd08G48lxjd1P05Cw0thAQ5pd7CYDJeFuGubldzRpuoV
ErvWnn5OIBtUZTraWaJbnM6m685+ZthcwutKtj11WKQa2v3eLOwQ6HtddiMJ4qYM
ncExRzPeCKRZja7N6OWyhPLGn+DNbgWIJi8gibxZ6gJbHxFtN+sAeXGhw07+jk4U
gC4bBS4HHzyuMB5MMSnGATAP3Hv8lquXuUgpmmYxGHcCAwEAAaNQME4wHQYDVR0O
BBYEFN9CCpple39Htscrv1mgDyXEokMHMB8GA1UdIwQYMBaAFN9CCpple39Htscr
v1mgDyXEokMHMAwGA1UdEwQFMAMBAf8wDQYJKoZIhvcNAQELBQADggEBABCVZgqg
y50MPkZ52aqTyqFREdcInA2VutwaDz4CmALpt2GllkVASi44GJMLT4wjimgztmZr
Gai54MjisVSGNLw+0DEaFCAhFLmDVgFz4xP0U0MSNdLn9y4QdwXeUme8SfyJu53n
T2i+4fEyFkpzPjR3NBIFyySozgVxZedaOwV8RUZ2nkfvn6CAZNMuX87SICEPkg7Q
jYUPeDhTm+OK5F8SVi1Q7OTCW3v0wx1CkTt93Iwk7de6R5zkpZhcptcv4hI6Lp78
WiO13UibiCYpzEpJvncsSQ3NlkGtj2THYGI+RPIeQMAbpd2BPDvFIhW7BZJrcs/3
t+snJSvF32u9Gtw=
-----END CERTIFICATE-----
